; Function Attrs: mustprogress uwtable
define hidden noundef zeroext i1 @_ZN7nanogui8TextArea18mouse_button_eventERKNS_5ArrayIiLm2EEEibi(ptr noundef nonnull align 8 dereferenceable(288) %0, ptr nocapture noundef nonnull readonly align 4 dereferenceable(8) %1, i32 noundef %2, i1 noundef zeroext %3, i32 %4) unnamed_addr #4 align 2 {
  %6 = alloca %"struct.nanogui::Array", align 8
  %7 = icmp eq i32 %2, 0
  %or.cond = and i1 %7, %3
  br i1 %or.cond, label %8, label %23

8:                                                ; preds = %5
  %9 = getelementptr inbounds i8, ptr %0, i64 268
  %10 = load i8, ptr %9, align 4
  %11 = and i8 %10, 1
  %.not = icmp eq i8 %11, 0
  br i1 %.not, label %23, label %_ZN7nanoguimiERKNS_5ArrayIiLm2EEES3_.exit.critedge

_ZN7nanoguimiERKNS_5ArrayIiLm2EEES3_.exit.critedge: ; preds = %8
  %12 = getelementptr inbounds i8, ptr %0, i64 40
  %13 = getelementptr inbounds i8, ptr %0, i64 264
  %14 = load <4 x i32>, ptr %13, align 8
  %15 = load <2 x i32>, ptr %1, align 4
  %16 = load <2 x i32>, ptr %12, align 8
  %17 = shufflevector <4 x i32> %14, <4 x i32> poison, <2 x i32> zeroinitializer
  %18 = add <2 x i32> %16, %17
  %19 = sub <2 x i32> %15, %18
  store <2 x i32> %19, ptr %6, align 8
  %20 = call i64 @_ZNK7nanogui8TextArea17position_to_blockERKNS_5ArrayIiLm2EEE(ptr noundef nonnull align 8 dereferenceable(288) %0, ptr noundef nonnull align 4 dereferenceable(8) %6)
  %21 = getelementptr inbounds i8, ptr %0, i64 280
  store i64 %20, ptr %21, align 8
  %22 = getelementptr inbounds i8, ptr %0, i64 272
  store i64 %20, ptr %22, align 8
  tail call void @_ZN7nanogui6Widget13request_focusEv(ptr noundef nonnull align 8 dereferenceable(140) %0)
  br label %23

23:                                               ; preds = %5, %8, %_ZN7nanoguimiERKNS_5ArrayIiLm2EEES3_.exit.critedge
  %.0 = phi i1 [ true, %_ZN7nanoguimiERKNS_5ArrayIiLm2EEES3_.exit.critedge ], [ false, %8 ], [ false, %5 ]
  ret i1 %.0
}